target datalayout = "e-m:e-p270:32:32-p271:32:32-p272:64:64-i64:64-i128:128-f80:128-n8:16:32:64-S128"
target triple = "x86_64-unknown-linux-gnu"

; Function Attrs: mustprogress uwtable
define noundef double @_ZN8QuantLib20unsafeSabrVolatilityEdddddddNS_14VolatilityTypeE(double noundef %strike, double noundef %forward, double noundef %expiryTime, double noundef %alpha, double noundef %beta, double noundef %nu, double noundef %rho, i32 noundef %volatilityType) #0 {
entry:
  %retval = alloca double, align 8
  %strike.addr = alloca double, align 8
  %forward.addr = alloca double, align 8
  %expiryTime.addr = alloca double, align 8
  %alpha.addr = alloca double, align 8
  %beta.addr = alloca double, align 8
  %nu.addr = alloca double, align 8
  %rho.addr = alloca double, align 8
  %volatilityType.addr = alloca i32, align 4
  store double %strike, ptr %strike.addr, align 8, !tbaa !3
  store double %forward, ptr %forward.addr, align 8, !tbaa !3
  store double %expiryTime, ptr %expiryTime.addr, align 8, !tbaa !3
  store double %alpha, ptr %alpha.addr, align 8, !tbaa !3
  store double %beta, ptr %beta.addr, align 8, !tbaa !3
  store double %nu, ptr %nu.addr, align 8, !tbaa !3
  store double %rho, ptr %rho.addr, align 8, !tbaa !3
  store i32 %volatilityType, ptr %volatilityType.addr, align 4, !tbaa !9
  %0 = load i32, ptr %volatilityType.addr, align 4, !tbaa !9
  %cmp = icmp eq i32 %0, 1
  br i1 %cmp, label %if.then, label %if.else

if.then:                                          ; preds = %entry
  %1 = load double, ptr %strike.addr, align 8, !tbaa !3
  %2 = load double, ptr %forward.addr, align 8, !tbaa !3
  %3 = load double, ptr %expiryTime.addr, align 8, !tbaa !3
  %4 = load double, ptr %alpha.addr, align 8, !tbaa !3
  %5 = load double, ptr %beta.addr, align 8, !tbaa !3
  %6 = load double, ptr %nu.addr, align 8, !tbaa !3
  %7 = load double, ptr %rho.addr, align 8, !tbaa !3
  %call = call noundef double @_ZN8QuantLib26unsafeSabrNormalVolatilityEddddddd(double noundef %1, double noundef %2, double noundef %3, double noundef %4, double noundef %5, double noundef %6, double noundef %7)
  store double %call, ptr %retval, align 8
  br label %return

if.else:                                          ; preds = %entry
  %8 = load double, ptr %strike.addr, align 8, !tbaa !3
  %9 = load double, ptr %forward.addr, align 8, !tbaa !3
  %10 = load double, ptr %expiryTime.addr, align 8, !tbaa !3
  %11 = load double, ptr %alpha.addr, align 8, !tbaa !3
  %12 = load double, ptr %beta.addr, align 8, !tbaa !3
  %13 = load double, ptr %nu.addr, align 8, !tbaa !3
  %14 = load double, ptr %rho.addr, align 8, !tbaa !3
  %call1 = call noundef double @_ZN8QuantLib29unsafeSabrLogNormalVolatilityEddddddd(double noundef %8, double noundef %9, double noundef %10, double noundef %11, double noundef %12, double noundef %13, double noundef %14)
  store double %call1, ptr %retval, align 8
  br label %return

return:                                           ; preds = %if.else, %if.then
  %15 = load double, ptr %retval, align 8
  ret double %15
}